target datalayout = "e-m:e-p270:32:32-p271:32:32-p272:64:64-i64:64-i128:128-f80:128-n8:16:32:64-S128"
target triple = "x86_64-pc-linux-gnu"

; Function Attrs: nounwind uwtable
define noalias ptr @CRYPTO_memdup(ptr noundef %0, i64 noundef %1, ptr noundef %2, i32 noundef %3) #0 {
  %5 = alloca ptr, align 8
  %6 = alloca ptr, align 8
  %7 = alloca i64, align 8
  %8 = alloca ptr, align 8
  %9 = alloca i32, align 4
  %10 = alloca ptr, align 8
  %11 = alloca i32, align 4
  store ptr %0, ptr %6, align 8, !tbaa !15
  store i64 %1, ptr %7, align 8, !tbaa !10
  store ptr %2, ptr %8, align 8, !tbaa !3
  store i32 %3, ptr %9, align 4, !tbaa !8
  call void @llvm.lifetime.start.p0(i64 8, ptr %10) #8
  %12 = load ptr, ptr %6, align 8, !tbaa !15
  %13 = icmp eq ptr %12, null
  br i1 %13, label %17, label %14

14:                                               ; preds = %4
  %15 = load i64, ptr %7, align 8, !tbaa !10
  %16 = icmp uge i64 %15, 2147483647
  br i1 %16, label %17, label %18

17:                                               ; preds = %14, %4
  store ptr null, ptr %5, align 8
  store i32 1, ptr %11, align 4
  br label %30

18:                                               ; preds = %14
  %19 = load i64, ptr %7, align 8, !tbaa !10
  %20 = load ptr, ptr %8, align 8, !tbaa !3
  %21 = load i32, ptr %9, align 4, !tbaa !8
  %22 = call noalias ptr @CRYPTO_malloc(i64 noundef %19, ptr noundef %20, i32 noundef %21)
  store ptr %22, ptr %10, align 8, !tbaa !15
  %23 = load ptr, ptr %10, align 8, !tbaa !15
  %24 = icmp eq ptr %23, null
  br i1 %24, label %25, label %26

25:                                               ; preds = %18
  store ptr null, ptr %5, align 8
  store i32 1, ptr %11, align 4
  br label %30

26:                                               ; preds = %18
  %27 = load ptr, ptr %10, align 8, !tbaa !15
  %28 = load ptr, ptr %6, align 8, !tbaa !15
  %29 = load i64, ptr %7, align 8, !tbaa !10
  call void @llvm.memcpy.p0.p0.i64(ptr align 1 %27, ptr align 1 %28, i64 %29, i1 false)
  store ptr %27, ptr %5, align 8
  store i32 1, ptr %11, align 4
  br label %30

30:                                               ; preds = %26, %25, %17
  call void @llvm.lifetime.end.p0(i64 8, ptr %10) #8
  %31 = load ptr, ptr %5, align 8
  ret ptr %31
}