; Function Attrs: nounwind uwtable
define noalias ptr @CRYPTO_memdup(ptr noundef readonly captures(address_is_null) %0, i64 noundef %1, ptr noundef %2, i32 noundef %3) local_unnamed_addr #0 {
  %5 = icmp eq ptr %0, null
  %6 = icmp ugt i64 %1, 2147483646
  %or.cond = or i1 %5, %6
  br i1 %or.cond, label %11, label %7

7:                                                ; preds = %4
  %8 = tail call noalias ptr @CRYPTO_malloc(i64 noundef %1, ptr noundef %2, i32 noundef %3) #16
  %9 = icmp eq ptr %8, null
  br i1 %9, label %11, label %10

10:                                               ; preds = %7
  tail call void @llvm.memcpy.p0.p0.i64(ptr nonnull align 1 %8, ptr nonnull align 1 %0, i64 %1, i1 false)
  br label %11

11:                                               ; preds = %7, %4, %10
  %.0 = phi ptr [ %8, %10 ], [ null, %4 ], [ null, %7 ]
  ret ptr %.0
}